target datalayout = "e-m:e-p270:32:32-p271:32:32-p272:64:64-i64:64-i128:128-f80:128-n8:16:32:64-S128"
target triple = "x86_64-pc-linux-gnu"

%class.QBasicAtomicInteger.0 = type { %"struct.std::atomic.1" }
%"struct.std::atomic.1" = type { %"struct.std::__atomic_base.2" }
%"struct.std::__atomic_base.2" = type { i32 }
%struct.QMetaObject = type { %"struct.QMetaObject::Data" }
%"struct.QMetaObject::Data" = type { %"struct.QMetaObject::SuperData", ptr, ptr, ptr, ptr, ptr, ptr }
%"struct.QMetaObject::SuperData" = type { ptr }
%class.QString = type { %struct.QArrayDataPointer }
%struct.QArrayDataPointer = type { ptr, ptr, i64 }
%class.QVariant = type { %"struct.QVariant::Private" }
%"struct.QVariant::Private" = type { %union.anon.3, i64 }
%union.anon.3 = type { ptr, [16 x i8] }
%struct.QArrayData = type { %class.QBasicAtomicInteger.0, %class.QFlags.43, i64 }
%class.QFlags.43 = type { i32 }

@.str.25 = private unnamed_addr constant [8 x i8] c"Profile\00", align 1
@.str.26 = private unnamed_addr constant [5 x i8] c"Type\00", align 1
@.str.27 = private unnamed_addr constant [19 x i8] c"Auto Switch Filter\00", align 1
@_ZN12ProfileModel16staticMetaObjectE = external global %struct.QMetaObject, align 8

; Function Attrs: mustprogress nounwind null_pointer_is_valid sspstrong uwtable
define linkonce_odr noundef i32 @_ZNSt13__atomic_baseIiEmmEv(ptr noundef align 4 dereferenceable_or_null(4) %0) #8 comdat align 2 {
  %2 = alloca ptr, align 8
  %3 = alloca i32, align 4
  %4 = alloca i32, align 4
  store ptr %0, ptr %2, align 8
  %5 = load ptr, ptr %2, align 8
  %6 = getelementptr inbounds nuw %"struct.std::__atomic_base.2", ptr %5, i32 0, i32 0
  store i32 1, ptr %3, align 4
  %7 = load i32, ptr %3, align 4
  %8 = atomicrmw sub ptr %6, i32 %7 seq_cst, align 4
  %9 = sub i32 %8, %7
  store i32 %9, ptr %4, align 4
  %10 = load i32, ptr %4, align 4
  ret i32 %10
}

; Function Attrs: inlinehint mustprogress nounwind null_pointer_is_valid sspstrong uwtable
define linkonce_odr noundef zeroext i1 @_ZN10QAtomicOpsIiE5derefIiEEbRSt6atomicIT_E(ptr noundef align 4 dereferenceable(4) %0) #4 comdat align 2 {
  %2 = alloca ptr, align 8
  store ptr %0, ptr %2, align 8
  %3 = load ptr, ptr %2, align 8
  %4 = call noundef i32 @_ZNSt13__atomic_baseIiEmmEv(ptr noundef align 4 dereferenceable_or_null(4) %3) #1
  %5 = icmp ne i32 %4, 0
  ret i1 %5
}

; Function Attrs: mustprogress nounwind null_pointer_is_valid sspstrong uwtable
define linkonce_odr noundef zeroext i1 @_ZN19QBasicAtomicIntegerIiE5derefEv(ptr noundef align 4 dereferenceable_or_null(4) %0) #8 comdat align 2 {
  %2 = alloca ptr, align 8
  store ptr %0, ptr %2, align 8
  %3 = load ptr, ptr %2, align 8
  %4 = getelementptr inbounds nuw %class.QBasicAtomicInteger.0, ptr %3, i32 0, i32 0
  %5 = call noundef zeroext i1 @_ZN10QAtomicOpsIiE5derefIiEEbRSt6atomicIT_E(ptr noundef align 4 dereferenceable(4) %4) #1
  ret i1 %5
}

; Function Attrs: mustprogress nounwind null_pointer_is_valid sspstrong uwtable
define linkonce_odr noundef zeroext i1 @_ZN10QArrayData5derefEv(ptr noundef align 8 dereferenceable_or_null(16) %0) #8 comdat align 2 {
  %2 = alloca ptr, align 8
  store ptr %0, ptr %2, align 8
  %3 = load ptr, ptr %2, align 8
  %4 = getelementptr inbounds nuw %struct.QArrayData, ptr %3, i32 0, i32 0
  %5 = call noundef zeroext i1 @_ZN19QBasicAtomicIntegerIiE5derefEv(ptr noundef align 4 dereferenceable_or_null(4) %4) #1
  ret i1 %5
}

; Function Attrs: inlinehint mustprogress nounwind null_pointer_is_valid sspstrong uwtable
define linkonce_odr void @_ZN8QVariant7PrivateUt_C2Ev(ptr noundef align 8 dereferenceable_or_null(24) %0) unnamed_addr #4 comdat align 2 {
  %2 = alloca ptr, align 8
  store ptr %0, ptr %2, align 8
  %3 = load ptr, ptr %2, align 8
  %4 = getelementptr inbounds i8, ptr %3, i64 24
  br label %5

5:                                                ; preds = %5, %1
  %6 = phi ptr [ %3, %1 ], [ %7, %5 ]
  store i8 0, ptr %6, align 1
  %7 = getelementptr inbounds i8, ptr %6, i64 1
  %8 = icmp eq ptr %7, %4
  br i1 %8, label %9, label %5

9:                                                ; preds = %5
  ret void
}

; Function Attrs: mustprogress nounwind null_pointer_is_valid sspstrong uwtable
define linkonce_odr void @_ZN15QTypedArrayDataIDsE10deallocateEP10QArrayData(ptr noundef %0) #8 comdat align 2 {
  %2 = alloca ptr, align 8
  store ptr %0, ptr %2, align 8
  %3 = load ptr, ptr %2, align 8
  call void @_ZN10QArrayData10deallocateEPS_xx(ptr noundef %3, i64 noundef 2, i64 noundef 8) #1
  ret void
}

; Function Attrs: mustprogress nounwind null_pointer_is_valid sspstrong uwtable
define linkonce_odr void @_ZN9QtPrivate12QPodArrayOpsIDsE10destroyAllEv(ptr noundef align 8 dereferenceable_or_null(24) %0) #8 comdat align 2 {
  %2 = alloca ptr, align 8
  store ptr %0, ptr %2, align 8
  ret void
}

; Function Attrs: mustprogress nounwind null_pointer_is_valid sspstrong uwtable
define linkonce_odr noundef ptr @_ZN17QArrayDataPointerIDsEptEv(ptr noundef align 8 dereferenceable_or_null(24) %0) #8 comdat align 2 {
  %2 = alloca ptr, align 8
  store ptr %0, ptr %2, align 8
  %3 = load ptr, ptr %2, align 8
  ret ptr %3
}

; Function Attrs: mustprogress nounwind null_pointer_is_valid sspstrong uwtable
define linkonce_odr noundef zeroext i1 @_ZN17QArrayDataPointerIDsE5derefEv(ptr noundef align 8 dereferenceable_or_null(24) %0) #8 comdat align 2 {
  %2 = alloca ptr, align 8
  store ptr %0, ptr %2, align 8
  %3 = load ptr, ptr %2, align 8
  %4 = getelementptr inbounds nuw %struct.QArrayDataPointer, ptr %3, i32 0, i32 0
  %5 = load ptr, ptr %4, align 8
  %6 = icmp ne ptr %5, null
  br i1 %6, label %7, label %11

7:                                                ; preds = %1
  %8 = getelementptr inbounds nuw %struct.QArrayDataPointer, ptr %3, i32 0, i32 0
  %9 = load ptr, ptr %8, align 8
  %10 = call noundef zeroext i1 @_ZN10QArrayData5derefEv(ptr noundef align 8 dereferenceable_or_null(16) %9) #1
  br label %11

11:                                               ; preds = %7, %1
  %12 = phi i1 [ true, %1 ], [ %10, %7 ]
  ret i1 %12
}

; Function Attrs: mustprogress nounwind null_pointer_is_valid sspstrong uwtable
define linkonce_odr void @_ZN8QVariant7PrivateC2Ev(ptr noundef align 8 dereferenceable_or_null(32) %0) unnamed_addr #8 comdat align 2 {
  %2 = alloca ptr, align 8
  store ptr %0, ptr %2, align 8
  %3 = load ptr, ptr %2, align 8
  %4 = getelementptr inbounds nuw %"struct.QVariant::Private", ptr %3, i32 0, i32 0
  call void @_ZN8QVariant7PrivateUt_C2Ev(ptr noundef align 8 dereferenceable_or_null(24) %4) #1
  %5 = getelementptr inbounds nuw %"struct.QVariant::Private", ptr %3, i32 0, i32 1
  %6 = load i64, ptr %5, align 8
  %7 = and i64 %6, -2
  %8 = or i64 %7, 0
  store i64 %8, ptr %5, align 8
  %9 = getelementptr inbounds nuw %"struct.QVariant::Private", ptr %3, i32 0, i32 1
  %10 = load i64, ptr %9, align 8
  %11 = and i64 %10, -3
  %12 = or i64 %11, 2
  store i64 %12, ptr %9, align 8
  %13 = getelementptr inbounds nuw %"struct.QVariant::Private", ptr %3, i32 0, i32 1
  %14 = load i64, ptr %13, align 8
  %15 = and i64 %14, 3
  %16 = or i64 %15, 0
  store i64 %16, ptr %13, align 8
  ret void
}

; Function Attrs: mustprogress nounwind null_pointer_is_valid sspstrong uwtable
define linkonce_odr void @_ZN17QArrayDataPointerIDsED2Ev(ptr noundef align 8 dereferenceable_or_null(24) %0) unnamed_addr #8 comdat align 2 {
  %2 = alloca ptr, align 8
  store ptr %0, ptr %2, align 8
  %3 = load ptr, ptr %2, align 8
  %4 = call noundef zeroext i1 @_ZN17QArrayDataPointerIDsE5derefEv(ptr noundef align 8 dereferenceable_or_null(24) %3) #1
  br i1 %4, label %9, label %5

5:                                                ; preds = %1
  %6 = call noundef ptr @_ZN17QArrayDataPointerIDsEptEv(ptr noundef align 8 dereferenceable_or_null(24) %3) #1
  call void @_ZN9QtPrivate12QPodArrayOpsIDsE10destroyAllEv(ptr noundef align 8 dereferenceable_or_null(24) %6) #1
  %7 = getelementptr inbounds nuw %struct.QArrayDataPointer, ptr %3, i32 0, i32 0
  %8 = load ptr, ptr %7, align 8
  call void @_ZN15QTypedArrayDataIDsE10deallocateEP10QArrayData(ptr noundef %8) #1
  br label %9

9:                                                ; preds = %5, %1
  ret void
}

; Function Attrs: mustprogress nounwind null_pointer_is_valid sspstrong uwtable
define linkonce_odr void @_ZN8QVariantC2Ev(ptr noundef align 8 dereferenceable_or_null(32) %0) unnamed_addr #8 comdat align 2 {
  %2 = alloca ptr, align 8
  store ptr %0, ptr %2, align 8
  %3 = load ptr, ptr %2, align 8
  %4 = getelementptr inbounds nuw %class.QVariant, ptr %3, i32 0, i32 0
  call void @_ZN8QVariant7PrivateC2Ev(ptr noundef align 8 dereferenceable_or_null(32) %4) #1
  ret void
}

; Function Attrs: inlinehint mustprogress nounwind null_pointer_is_valid sspstrong uwtable
define linkonce_odr void @_ZN7QStringD2Ev(ptr noundef align 8 dereferenceable_or_null(24) %0) unnamed_addr #4 comdat align 2 {
  %2 = alloca ptr, align 8
  store ptr %0, ptr %2, align 8
  %3 = load ptr, ptr %2, align 8
  %4 = getelementptr inbounds nuw %class.QString, ptr %3, i32 0, i32 0
  call void @_ZN17QArrayDataPointerIDsED2Ev(ptr noundef align 8 dereferenceable_or_null(24) %4) #1
  ret void
}

; Function Attrs: inlinehint mustprogress null_pointer_is_valid sspstrong uwtable
define linkonce_odr void @_ZN12ProfileModel2trEPKcS1_i(ptr dead_on_unwind noalias writable sret(%class.QString) align 8 %0, ptr noundef %1, ptr noundef %2, i32 noundef %3) #7 comdat align 2 {
  %5 = alloca ptr, align 8
  %6 = alloca ptr, align 8
  %7 = alloca ptr, align 8
  %8 = alloca i32, align 4
  store ptr %0, ptr %5, align 8
  store ptr %1, ptr %6, align 8
  store ptr %2, ptr %7, align 8
  store i32 %3, ptr %8, align 4
  %9 = load ptr, ptr %6, align 8
  %10 = load ptr, ptr %7, align 8
  %11 = load i32, ptr %8, align 4
  call void @_ZNK11QMetaObject2trEPKcS1_i(ptr dead_on_unwind writable sret(%class.QString) align 8 %0, ptr noundef align 8 dereferenceable_or_null(56) @_ZN12ProfileModel16staticMetaObjectE, ptr noundef %9, ptr noundef %10, i32 noundef %11)
  ret void
}

; Function Attrs: mustprogress null_pointer_is_valid sspstrong uwtable
define void @_ZNK12ProfileModel10headerDataEiN2Qt11OrientationEi(ptr dead_on_unwind noalias writable sret(%class.QVariant) align 8 %0, ptr noundef align 8 dereferenceable_or_null(104) %1, i32 noundef %2, i32 noundef %3, i32 noundef %4) unnamed_addr #0 align 2 personality ptr @__gxx_personality_v0 {
  %6 = alloca ptr, align 8
  %7 = alloca ptr, align 8
  %8 = alloca i32, align 4
  %9 = alloca i32, align 4
  %10 = alloca i32, align 4
  %11 = alloca %class.QString, align 8
  %12 = alloca ptr, align 8
  %13 = alloca i32, align 4
  %14 = alloca %class.QString, align 8
  %15 = alloca %class.QString, align 8
  store ptr %0, ptr %6, align 8
  store ptr %1, ptr %7, align 8
  store i32 %2, ptr %8, align 4
  store i32 %3, ptr %9, align 4
  store i32 %4, ptr %10, align 4
  %16 = load i32, ptr %9, align 4
  %17 = icmp eq i32 %16, 1
  br i1 %17, label %18, label %43

18:                                               ; preds = %5
  %19 = load i32, ptr %10, align 4
  %20 = icmp eq i32 %19, 0
  br i1 %20, label %21, label %43

21:                                               ; preds = %18
  %22 = load i32, ptr %8, align 4
  switch i32 %22, label %41 [
    i32 0, label %23
    i32 1, label %29
    i32 2, label %35
  ]

23:                                               ; preds = %21
  call void @llvm.lifetime.start.p0(i64 24, ptr %11) #1
  call void @_ZN12ProfileModel2trEPKcS1_i(ptr dead_on_unwind writable sret(%class.QString) align 8 %11, ptr noundef @.str.25, ptr noundef null, i32 noundef -1)
  invoke void @_ZN8QVariantC1ERK7QString(ptr noundef align 8 dereferenceable_or_null(32) %0, ptr noundef align 8 dereferenceable(24) %11)
          to label %24 unwind label %25

24:                                               ; preds = %23
  call void @_ZN7QStringD2Ev(ptr noundef align 8 dereferenceable_or_null(24) %11) #1
  call void @llvm.lifetime.end.p0(i64 24, ptr %11) #1
  br label %44

25:                                               ; preds = %23
  %26 = landingpad { ptr, i32 }
          cleanup
  %27 = extractvalue { ptr, i32 } %26, 0
  store ptr %27, ptr %12, align 8
  %28 = extractvalue { ptr, i32 } %26, 1
  store i32 %28, ptr %13, align 4
  call void @_ZN7QStringD2Ev(ptr noundef align 8 dereferenceable_or_null(24) %11) #1
  call void @llvm.lifetime.end.p0(i64 24, ptr %11) #1
  br label %45

29:                                               ; preds = %21
  call void @llvm.lifetime.start.p0(i64 24, ptr %14) #1
  call void @_ZN12ProfileModel2trEPKcS1_i(ptr dead_on_unwind writable sret(%class.QString) align 8 %14, ptr noundef @.str.26, ptr noundef null, i32 noundef -1)
  invoke void @_ZN8QVariantC1ERK7QString(ptr noundef align 8 dereferenceable_or_null(32) %0, ptr noundef align 8 dereferenceable(24) %14)
          to label %30 unwind label %31

30:                                               ; preds = %29
  call void @_ZN7QStringD2Ev(ptr noundef align 8 dereferenceable_or_null(24) %14) #1
  call void @llvm.lifetime.end.p0(i64 24, ptr %14) #1
  br label %44

31:                                               ; preds = %29
  %32 = landingpad { ptr, i32 }
          cleanup
  %33 = extractvalue { ptr, i32 } %32, 0
  store ptr %33, ptr %12, align 8
  %34 = extractvalue { ptr, i32 } %32, 1
  store i32 %34, ptr %13, align 4
  call void @_ZN7QStringD2Ev(ptr noundef align 8 dereferenceable_or_null(24) %14) #1
  call void @llvm.lifetime.end.p0(i64 24, ptr %14) #1
  br label %45

35:                                               ; preds = %21
  call void @llvm.lifetime.start.p0(i64 24, ptr %15) #1
  call void @_ZN12ProfileModel2trEPKcS1_i(ptr dead_on_unwind writable sret(%class.QString) align 8 %15, ptr noundef @.str.27, ptr noundef null, i32 noundef -1)
  invoke void @_ZN8QVariantC1ERK7QString(ptr noundef align 8 dereferenceable_or_null(32) %0, ptr noundef align 8 dereferenceable(24) %15)
          to label %36 unwind label %37

36:                                               ; preds = %35
  call void @_ZN7QStringD2Ev(ptr noundef align 8 dereferenceable_or_null(24) %15) #1
  call void @llvm.lifetime.end.p0(i64 24, ptr %15) #1
  br label %44

37:                                               ; preds = %35
  %38 = landingpad { ptr, i32 }
          cleanup
  %39 = extractvalue { ptr, i32 } %38, 0
  store ptr %39, ptr %12, align 8
  %40 = extractvalue { ptr, i32 } %38, 1
  store i32 %40, ptr %13, align 4
  call void @_ZN7QStringD2Ev(ptr noundef align 8 dereferenceable_or_null(24) %15) #1
  call void @llvm.lifetime.end.p0(i64 24, ptr %15) #1
  br label %45

41:                                               ; preds = %21
  br label %42

42:                                               ; preds = %41
  br label %43

43:                                               ; preds = %42, %18, %5
  call void @_ZN8QVariantC2Ev(ptr noundef align 8 dereferenceable_or_null(32) %0) #1
  br label %44

44:                                               ; preds = %43, %36, %30, %24
  ret void

45:                                               ; preds = %37, %31, %25
  %46 = load ptr, ptr %12, align 8
  %47 = load i32, ptr %13, align 4
  %48 = insertvalue { ptr, i32 } poison, ptr %46, 0
  %49 = insertvalue { ptr, i32 } %48, i32 %47, 1
  resume { ptr, i32 } %49
}