; Function Attrs: mustprogress null_pointer_is_valid sspstrong uwtable
define void @_ZNK12ProfileModel10headerDataEiN2Qt11OrientationEi(ptr dead_on_unwind noalias writable sret(%class.QVariant) align 8 %0, ptr noundef readnone align 8 captures(none) dereferenceable_or_null(104) %1, i32 noundef %2, i32 noundef %3, i32 noundef %4) unnamed_addr #0 align 2 personality ptr @__gxx_personality_v0 {
  %6 = alloca %class.QString, align 8
  %7 = alloca %class.QString, align 8
  %8 = alloca %class.QString, align 8
  %9 = icmp eq i32 %3, 1
  %10 = icmp eq i32 %4, 0
  %or.cond = and i1 %9, %10
  br i1 %or.cond, label %11, label %48

11:                                               ; preds = %5
  switch i32 %2, label %48 [
    i32 0, label %12
    i32 1, label %24
    i32 2, label %36
  ]

12:                                               ; preds = %11
  call void @llvm.lifetime.start.p0(i64 24, ptr nonnull %6) #26
  call void @_ZNK11QMetaObject2trEPKcS1_i(ptr dead_on_unwind nonnull writable sret(%class.QString) align 8 %6, ptr noundef nonnull align 8 dereferenceable_or_null(56) @_ZN12ProfileModel16staticMetaObjectE, ptr noundef nonnull @.str.25, ptr noundef null, i32 noundef -1)
  invoke void @_ZN8QVariantC1ERK7QString(ptr noundef align 8 dereferenceable_or_null(32) %0, ptr noundef nonnull align 8 dereferenceable(24) %6)
          to label %13 unwind label %18

13:                                               ; preds = %12
  %14 = load ptr, ptr %6, align 8
  %.not.i.i.i = icmp eq ptr %14, null
  br i1 %.not.i.i.i, label %_ZN7QStringD2Ev.exit, label %_ZN17QArrayDataPointerIDsE5derefEv.exit.i.i

_ZN17QArrayDataPointerIDsE5derefEv.exit.i.i:      ; preds = %13
  %15 = atomicrmw sub ptr %14, i32 1 seq_cst, align 4
  %.not.i.i = icmp eq i32 %15, 1
  br i1 %.not.i.i, label %16, label %_ZN7QStringD2Ev.exit

16:                                               ; preds = %_ZN17QArrayDataPointerIDsE5derefEv.exit.i.i
  %17 = load ptr, ptr %6, align 8
  call void @_ZN10QArrayData10deallocateEPS_xx(ptr noundef %17, i64 noundef 2, i64 noundef 8) #26
  br label %_ZN7QStringD2Ev.exit

_ZN7QStringD2Ev.exit:                             ; preds = %13, %_ZN17QArrayDataPointerIDsE5derefEv.exit.i.i, %16
  call void @llvm.lifetime.end.p0(i64 24, ptr nonnull %6) #26
  br label %50

18:                                               ; preds = %12
  %19 = landingpad { ptr, i32 }
          cleanup
  %20 = load ptr, ptr %6, align 8
  %.not.i.i.i7 = icmp eq ptr %20, null
  br i1 %.not.i.i.i7, label %_ZN7QStringD2Ev.exit10, label %_ZN17QArrayDataPointerIDsE5derefEv.exit.i.i8

_ZN17QArrayDataPointerIDsE5derefEv.exit.i.i8:     ; preds = %18
  %21 = atomicrmw sub ptr %20, i32 1 seq_cst, align 4
  %.not.i.i9 = icmp eq i32 %21, 1
  br i1 %.not.i.i9, label %22, label %_ZN7QStringD2Ev.exit10

22:                                               ; preds = %_ZN17QArrayDataPointerIDsE5derefEv.exit.i.i8
  %23 = load ptr, ptr %6, align 8
  call void @_ZN10QArrayData10deallocateEPS_xx(ptr noundef %23, i64 noundef 2, i64 noundef 8) #26
  br label %_ZN7QStringD2Ev.exit10

_ZN7QStringD2Ev.exit10:                           ; preds = %18, %_ZN17QArrayDataPointerIDsE5derefEv.exit.i.i8, %22
  call void @llvm.lifetime.end.p0(i64 24, ptr nonnull %6) #26
  br label %51

24:                                               ; preds = %11
  call void @llvm.lifetime.start.p0(i64 24, ptr nonnull %7) #26
  call void @_ZNK11QMetaObject2trEPKcS1_i(ptr dead_on_unwind nonnull writable sret(%class.QString) align 8 %7, ptr noundef nonnull align 8 dereferenceable_or_null(56) @_ZN12ProfileModel16staticMetaObjectE, ptr noundef nonnull @.str.26, ptr noundef null, i32 noundef -1)
  invoke void @_ZN8QVariantC1ERK7QString(ptr noundef align 8 dereferenceable_or_null(32) %0, ptr noundef nonnull align 8 dereferenceable(24) %7)
          to label %25 unwind label %30

25:                                               ; preds = %24
  %26 = load ptr, ptr %7, align 8
  %.not.i.i.i11 = icmp eq ptr %26, null
  br i1 %.not.i.i.i11, label %_ZN7QStringD2Ev.exit14, label %_ZN17QArrayDataPointerIDsE5derefEv.exit.i.i12

_ZN17QArrayDataPointerIDsE5derefEv.exit.i.i12:    ; preds = %25
  %27 = atomicrmw sub ptr %26, i32 1 seq_cst, align 4
  %.not.i.i13 = icmp eq i32 %27, 1
  br i1 %.not.i.i13, label %28, label %_ZN7QStringD2Ev.exit14

28:                                               ; preds = %_ZN17QArrayDataPointerIDsE5derefEv.exit.i.i12
  %29 = load ptr, ptr %7, align 8
  call void @_ZN10QArrayData10deallocateEPS_xx(ptr noundef %29, i64 noundef 2, i64 noundef 8) #26
  br label %_ZN7QStringD2Ev.exit14

_ZN7QStringD2Ev.exit14:                           ; preds = %25, %_ZN17QArrayDataPointerIDsE5derefEv.exit.i.i12, %28
  call void @llvm.lifetime.end.p0(i64 24, ptr nonnull %7) #26
  br label %50

30:                                               ; preds = %24
  %31 = landingpad { ptr, i32 }
          cleanup
  %32 = load ptr, ptr %7, align 8
  %.not.i.i.i15 = icmp eq ptr %32, null
  br i1 %.not.i.i.i15, label %_ZN7QStringD2Ev.exit18, label %_ZN17QArrayDataPointerIDsE5derefEv.exit.i.i16

_ZN17QArrayDataPointerIDsE5derefEv.exit.i.i16:    ; preds = %30
  %33 = atomicrmw sub ptr %32, i32 1 seq_cst, align 4
  %.not.i.i17 = icmp eq i32 %33, 1
  br i1 %.not.i.i17, label %34, label %_ZN7QStringD2Ev.exit18

34:                                               ; preds = %_ZN17QArrayDataPointerIDsE5derefEv.exit.i.i16
  %35 = load ptr, ptr %7, align 8
  call void @_ZN10QArrayData10deallocateEPS_xx(ptr noundef %35, i64 noundef 2, i64 noundef 8) #26
  br label %_ZN7QStringD2Ev.exit18

_ZN7QStringD2Ev.exit18:                           ; preds = %30, %_ZN17QArrayDataPointerIDsE5derefEv.exit.i.i16, %34
  call void @llvm.lifetime.end.p0(i64 24, ptr nonnull %7) #26
  br label %51

36:                                               ; preds = %11
  call void @llvm.lifetime.start.p0(i64 24, ptr nonnull %8) #26
  call void @_ZNK11QMetaObject2trEPKcS1_i(ptr dead_on_unwind nonnull writable sret(%class.QString) align 8 %8, ptr noundef nonnull align 8 dereferenceable_or_null(56) @_ZN12ProfileModel16staticMetaObjectE, ptr noundef nonnull @.str.27, ptr noundef null, i32 noundef -1)
  invoke void @_ZN8QVariantC1ERK7QString(ptr noundef align 8 dereferenceable_or_null(32) %0, ptr noundef nonnull align 8 dereferenceable(24) %8)
          to label %37 unwind label %42

37:                                               ; preds = %36
  %38 = load ptr, ptr %8, align 8
  %.not.i.i.i19 = icmp eq ptr %38, null
  br i1 %.not.i.i.i19, label %_ZN7QStringD2Ev.exit22, label %_ZN17QArrayDataPointerIDsE5derefEv.exit.i.i20

_ZN17QArrayDataPointerIDsE5derefEv.exit.i.i20:    ; preds = %37
  %39 = atomicrmw sub ptr %38, i32 1 seq_cst, align 4
  %.not.i.i21 = icmp eq i32 %39, 1
  br i1 %.not.i.i21, label %40, label %_ZN7QStringD2Ev.exit22

40:                                               ; preds = %_ZN17QArrayDataPointerIDsE5derefEv.exit.i.i20
  %41 = load ptr, ptr %8, align 8
  call void @_ZN10QArrayData10deallocateEPS_xx(ptr noundef %41, i64 noundef 2, i64 noundef 8) #26
  br label %_ZN7QStringD2Ev.exit22

_ZN7QStringD2Ev.exit22:                           ; preds = %37, %_ZN17QArrayDataPointerIDsE5derefEv.exit.i.i20, %40
  call void @llvm.lifetime.end.p0(i64 24, ptr nonnull %8) #26
  br label %50

42:                                               ; preds = %36
  %43 = landingpad { ptr, i32 }
          cleanup
  %44 = load ptr, ptr %8, align 8
  %.not.i.i.i23 = icmp eq ptr %44, null
  br i1 %.not.i.i.i23, label %_ZN7QStringD2Ev.exit26, label %_ZN17QArrayDataPointerIDsE5derefEv.exit.i.i24

_ZN17QArrayDataPointerIDsE5derefEv.exit.i.i24:    ; preds = %42
  %45 = atomicrmw sub ptr %44, i32 1 seq_cst, align 4
  %.not.i.i25 = icmp eq i32 %45, 1
  br i1 %.not.i.i25, label %46, label %_ZN7QStringD2Ev.exit26

46:                                               ; preds = %_ZN17QArrayDataPointerIDsE5derefEv.exit.i.i24
  %47 = load ptr, ptr %8, align 8
  call void @_ZN10QArrayData10deallocateEPS_xx(ptr noundef %47, i64 noundef 2, i64 noundef 8) #26
  br label %_ZN7QStringD2Ev.exit26

_ZN7QStringD2Ev.exit26:                           ; preds = %42, %_ZN17QArrayDataPointerIDsE5derefEv.exit.i.i24, %46
  call void @llvm.lifetime.end.p0(i64 24, ptr nonnull %8) #26
  br label %51

48:                                               ; preds = %11, %5
  tail call void @llvm.memset.p0.i64(ptr noundef align 8 dereferenceable(24) dereferenceable_or_null(32) %0, i8 0, i64 24, i1 false)
  %49 = getelementptr inbounds nuw i8, ptr %0, i64 24
  store i64 2, ptr %49, align 8
  br label %50

50:                                               ; preds = %48, %_ZN7QStringD2Ev.exit22, %_ZN7QStringD2Ev.exit14, %_ZN7QStringD2Ev.exit
  ret void

51:                                               ; preds = %_ZN7QStringD2Ev.exit26, %_ZN7QStringD2Ev.exit18, %_ZN7QStringD2Ev.exit10
  %.pn = phi { ptr, i32 } [ %43, %_ZN7QStringD2Ev.exit26 ], [ %31, %_ZN7QStringD2Ev.exit18 ], [ %19, %_ZN7QStringD2Ev.exit10 ]
  resume { ptr, i32 } %.pn
}